target datalayout = "e-m:e-p270:32:32-p271:32:32-p272:64:64-i64:64-i128:128-f80:128-n8:16:32:64-S128"
target triple = "x86_64-pc-linux-gnu"

@hf_awdl_arpa = internal global i32 0, align 4
@hf_awdl_arpa_name = internal global i32 0, align 4
@hf_awdl_arpa_flags = internal global i32 0, align 4
@hf_awdl_arpa_short = internal global i32 0, align 4
@ett_awdl_dns_name = internal global i32 0, align 4

; Function Attrs: null_pointer_is_valid sspstrong uwtable
define internal i32 @awdl_tag_arpa(ptr noundef %0, ptr noundef %1, ptr noundef %2, ptr noundef %3) #0 {
  %5 = alloca ptr, align 8
  %6 = alloca ptr, align 8
  %7 = alloca ptr, align 8
  %8 = alloca ptr, align 8
  %9 = alloca i32, align 4
  %10 = alloca i32, align 4
  store ptr %0, ptr %5, align 8
  store ptr %1, ptr %6, align 8
  store ptr %2, ptr %7, align 8
  store ptr %3, ptr %8, align 8
  call void @llvm.lifetime.start.p0(i64 4, ptr %9) #6
  store i32 0, ptr %9, align 4
  call void @llvm.lifetime.start.p0(i64 4, ptr %10) #6
  %11 = load ptr, ptr %5, align 8
  %12 = call i32 @tvb_reported_length(ptr noundef %11)
  store i32 %12, ptr %10, align 4
  %13 = load ptr, ptr %7, align 8
  %14 = load i32, ptr @hf_awdl_arpa_flags, align 4
  %15 = load ptr, ptr %5, align 8
  %16 = load i32, ptr %9, align 4
  %17 = call ptr @proto_tree_add_item(ptr noundef %13, i32 noundef %14, ptr noundef %15, i32 noundef %16, i32 noundef 1, i32 noundef 0)
  %18 = load i32, ptr %9, align 4
  %19 = add i32 %18, 1
  store i32 %19, ptr %9, align 4
  %20 = load ptr, ptr %6, align 8
  %21 = load ptr, ptr %7, align 8
  %22 = load i32, ptr @ett_awdl_dns_name, align 4
  %23 = load i32, ptr @hf_awdl_arpa, align 4
  %24 = load i32, ptr @hf_awdl_arpa_name, align 4
  %25 = load i32, ptr @hf_awdl_arpa_short, align 4
  %26 = load ptr, ptr %5, align 8
  %27 = load i32, ptr %9, align 4
  %28 = load i32, ptr %10, align 4
  %29 = load i32, ptr %9, align 4
  %30 = sub i32 %28, %29
  %31 = call i32 @add_awdl_dns_entry(ptr noundef %20, ptr noundef %21, i32 noundef %22, i32 noundef %23, i32 noundef %24, i32 noundef %25, ptr noundef %26, i32 noundef %27, i32 noundef %30, ptr noundef null)
  %32 = load i32, ptr %9, align 4
  %33 = add i32 %32, %31
  store i32 %33, ptr %9, align 4
  %34 = load i32, ptr %9, align 4
  call void @llvm.lifetime.end.p0(i64 4, ptr %10) #6
  call void @llvm.lifetime.end.p0(i64 4, ptr %9) #6
  ret i32 %34
}