; Function Attrs: null_pointer_is_valid sspstrong uwtable
define internal i32 @awdl_tag_arpa(ptr noundef %0, ptr noundef readonly captures(none) %1, ptr noundef %2, ptr readnone captures(none) %3) #0 {
  %5 = tail call i32 @tvb_reported_length(ptr noundef %0)
  %6 = load i32, ptr @hf_awdl_arpa_flags, align 4
  %7 = tail call ptr @proto_tree_add_item(ptr noundef %2, i32 noundef %6, ptr noundef %0, i32 noundef 0, i32 noundef 1, i32 noundef 0)
  %8 = load i32, ptr @ett_awdl_dns_name, align 4
  %9 = load i32, ptr @hf_awdl_arpa, align 4
  %10 = load i32, ptr @hf_awdl_arpa_name, align 4
  %11 = load i32, ptr @hf_awdl_arpa_short, align 4
  %12 = add i32 %5, -1
  %13 = tail call fastcc i32 @add_awdl_dns_entry(ptr noundef %1, ptr noundef %2, i32 noundef %8, i32 noundef %9, i32 noundef %10, i32 noundef %11, ptr noundef %0, i32 noundef 1, i32 noundef %12, ptr noundef null)
  %14 = add i32 %13, 1
  ret i32 %14
}